; Function Attrs: mustprogress nofree norecurse nosync nounwind willreturn memory(read, inaccessiblemem: none) uwtable
define hidden noundef zeroext i1 @_ZN4lean12is_lcnf_atomERKNS_4exprE(ptr noundef nonnull readonly align 8 captures(none) dereferenceable(8) %0) local_unnamed_addr #3 {
  %2 = load ptr, ptr %0, align 8, !tbaa !3
  %3 = getelementptr i8, ptr %2, i64 4
  %.val.i.i.i = load i32, ptr %3, align 4
  %4 = lshr i32 %.val.i.i.i, 24
  %5 = icmp ult i32 %.val.i.i.i, 167772160
  %6 = trunc nuw nsw i32 %4 to i10
  %switch.downshift = lshr i10 -494, %6
  %switch.masked = trunc i10 %switch.downshift to i1
  %.0 = select i1 %5, i1 %switch.masked, i1 false
  ret i1 %.0
}